target datalayout = "e-m:e-p270:32:32-p271:32:32-p272:64:64-i64:64-i128:128-f80:128-n8:16:32:64-S128"
target triple = "x86_64-pc-linux-gnu"

%struct._zend_llist = type { ptr, ptr, i64, i64, ptr, i8, ptr }
%struct._zend_llist_element = type { ptr, ptr, [1 x i8] }

; Function Attrs: nounwind uwtable
define void @zend_llist_remove_tail(ptr noundef %0) #0 {
  %2 = alloca ptr, align 8
  %3 = alloca ptr, align 8
  store ptr %0, ptr %2, align 8
  %4 = load ptr, ptr %2, align 8
  %5 = getelementptr inbounds %struct._zend_llist, ptr %4, i32 0, i32 1
  %6 = load ptr, ptr %5, align 8
  store ptr %6, ptr %3, align 8
  %7 = load ptr, ptr %3, align 8
  %8 = icmp ne ptr %7, null
  br i1 %8, label %10, label %9

9:                                                ; preds = %1
  br label %54

10:                                               ; preds = %1
  %11 = load ptr, ptr %3, align 8
  %12 = getelementptr inbounds %struct._zend_llist_element, ptr %11, i32 0, i32 1
  %13 = load ptr, ptr %12, align 8
  %14 = icmp ne ptr %13, null
  br i1 %14, label %15, label %20

15:                                               ; preds = %10
  %16 = load ptr, ptr %3, align 8
  %17 = getelementptr inbounds %struct._zend_llist_element, ptr %16, i32 0, i32 1
  %18 = load ptr, ptr %17, align 8
  %19 = getelementptr inbounds %struct._zend_llist_element, ptr %18, i32 0, i32 0
  store ptr null, ptr %19, align 8
  br label %23

20:                                               ; preds = %10
  %21 = load ptr, ptr %2, align 8
  %22 = getelementptr inbounds %struct._zend_llist, ptr %21, i32 0, i32 0
  store ptr null, ptr %22, align 8
  br label %23

23:                                               ; preds = %20, %15
  %24 = load ptr, ptr %3, align 8
  %25 = getelementptr inbounds %struct._zend_llist_element, ptr %24, i32 0, i32 1
  %26 = load ptr, ptr %25, align 8
  %27 = load ptr, ptr %2, align 8
  %28 = getelementptr inbounds %struct._zend_llist, ptr %27, i32 0, i32 1
  store ptr %26, ptr %28, align 8
  %29 = load ptr, ptr %2, align 8
  %30 = getelementptr inbounds %struct._zend_llist, ptr %29, i32 0, i32 2
  %31 = load i64, ptr %30, align 8
  %32 = add i64 %31, -1
  store i64 %32, ptr %30, align 8
  %33 = load ptr, ptr %2, align 8
  %34 = getelementptr inbounds %struct._zend_llist, ptr %33, i32 0, i32 4
  %35 = load ptr, ptr %34, align 8
  %36 = icmp ne ptr %35, null
  br i1 %36, label %37, label %44

37:                                               ; preds = %23
  %38 = load ptr, ptr %2, align 8
  %39 = getelementptr inbounds %struct._zend_llist, ptr %38, i32 0, i32 4
  %40 = load ptr, ptr %39, align 8
  %41 = load ptr, ptr %3, align 8
  %42 = getelementptr inbounds %struct._zend_llist_element, ptr %41, i32 0, i32 2
  %43 = getelementptr inbounds [1 x i8], ptr %42, i64 0, i64 0
  call void %40(ptr noundef %43)
  br label %44

44:                                               ; preds = %37, %23
  %45 = load ptr, ptr %2, align 8
  %46 = getelementptr inbounds %struct._zend_llist, ptr %45, i32 0, i32 5
  %47 = load i8, ptr %46, align 8
  %48 = zext i8 %47 to i32
  %49 = icmp ne i32 %48, 0
  br i1 %49, label %50, label %52

50:                                               ; preds = %44
  %51 = load ptr, ptr %3, align 8
  call void @free(ptr noundef %51) #8
  br label %54

52:                                               ; preds = %44
  %53 = load ptr, ptr %3, align 8
  call void @_efree(ptr noundef %53)
  br label %54

54:                                               ; preds = %52, %50, %9
  ret void
}