; Function Attrs: nounwind uwtable
define void @zend_llist_remove_tail(ptr nocapture noundef %0) local_unnamed_addr #1 {
  %2 = getelementptr inbounds i8, ptr %0, i64 8
  %3 = load ptr, ptr %2, align 8
  %.not = icmp eq ptr %3, null
  br i1 %.not, label %20, label %4

4:                                                ; preds = %1
  %5 = getelementptr inbounds i8, ptr %3, i64 8
  %6 = load ptr, ptr %5, align 8
  %.not16 = icmp eq ptr %6, null
  %. = select i1 %.not16, ptr %0, ptr %6
  store ptr null, ptr %., align 8
  %7 = load ptr, ptr %5, align 8
  store ptr %7, ptr %2, align 8
  %8 = getelementptr inbounds i8, ptr %0, i64 16
  %9 = load i64, ptr %8, align 8
  %10 = add i64 %9, -1
  store i64 %10, ptr %8, align 8
  %11 = getelementptr inbounds i8, ptr %0, i64 32
  %12 = load ptr, ptr %11, align 8
  %.not17 = icmp eq ptr %12, null
  br i1 %.not17, label %15, label %13

13:                                               ; preds = %4
  %14 = getelementptr inbounds i8, ptr %3, i64 16
  tail call void %12(ptr noundef nonnull %14) #13
  br label %15

15:                                               ; preds = %13, %4
  %16 = getelementptr inbounds i8, ptr %0, i64 40
  %17 = load i8, ptr %16, align 8
  %.not18 = icmp eq i8 %17, 0
  br i1 %.not18, label %19, label %18

18:                                               ; preds = %15
  tail call void @free(ptr noundef nonnull %3) #13
  br label %20

19:                                               ; preds = %15
  tail call void @_efree(ptr noundef nonnull %3) #13
  br label %20

20:                                               ; preds = %1, %19, %18
  ret void
}